target datalayout = "e-m:e-p270:32:32-p271:32:32-p272:64:64-i64:64-i128:128-f80:128-n8:16:32:64-S128"
target triple = "x86_64-pc-linux-gnu"

%struct.timeval = type { i64, i64 }

; Function Attrs: nounwind uwtable
define hidden i32 @Curl_wait_ms(i64 noundef %0) #0 {
  %2 = alloca i32, align 4
  %3 = alloca i64, align 8
  %4 = alloca i32, align 4
  %5 = alloca i32, align 4
  %6 = alloca %struct.timeval, align 8
  store i64 %0, ptr %3, align 8, !tbaa !3
  call void @llvm.lifetime.start.p0(i64 4, ptr %4) #6
  store i32 0, ptr %4, align 4, !tbaa !7
  %7 = load i64, ptr %3, align 8, !tbaa !3
  %8 = icmp ne i64 %7, 0
  br i1 %8, label %10, label %9

9:                                                ; preds = %1
  store i32 0, ptr %2, align 4
  store i32 1, ptr %5, align 4
  br label %33

10:                                               ; preds = %1
  %11 = load i64, ptr %3, align 8, !tbaa !3
  %12 = icmp slt i64 %11, 0
  br i1 %12, label %13, label %15

13:                                               ; preds = %10
  %14 = call ptr @__errno_location() #7
  store i32 22, ptr %14, align 4, !tbaa !7
  store i32 -1, ptr %2, align 4
  store i32 1, ptr %5, align 4
  br label %33

15:                                               ; preds = %10
  call void @llvm.lifetime.start.p0(i64 16, ptr %6) #6
  %16 = load i64, ptr %3, align 8, !tbaa !3
  %17 = call ptr @curlx_mstotv(ptr noundef %6, i64 noundef %16)
  %18 = call i32 @select(i32 noundef 0, ptr noundef null, ptr noundef null, ptr noundef null, ptr noundef %17)
  store i32 %18, ptr %4, align 4, !tbaa !7
  call void @llvm.lifetime.end.p0(i64 16, ptr %6) #6
  %19 = load i32, ptr %4, align 4, !tbaa !7
  %20 = icmp ne i32 %19, 0
  br i1 %20, label %21, label %31

21:                                               ; preds = %15
  %22 = load i32, ptr %4, align 4, !tbaa !7
  %23 = icmp eq i32 %22, -1
  br i1 %23, label %24, label %29

24:                                               ; preds = %21
  %25 = call ptr @__errno_location() #7
  %26 = load i32, ptr %25, align 4, !tbaa !7
  %27 = icmp eq i32 %26, 4
  br i1 %27, label %28, label %29

28:                                               ; preds = %24
  store i32 0, ptr %4, align 4, !tbaa !7
  br label %30

29:                                               ; preds = %24, %21
  store i32 -1, ptr %4, align 4, !tbaa !7
  br label %30

30:                                               ; preds = %29, %28
  br label %31

31:                                               ; preds = %30, %15
  %32 = load i32, ptr %4, align 4, !tbaa !7
  store i32 %32, ptr %2, align 4
  store i32 1, ptr %5, align 4
  br label %33

33:                                               ; preds = %31, %13, %9
  call void @llvm.lifetime.end.p0(i64 4, ptr %4) #6
  %34 = load i32, ptr %2, align 4
  ret i32 %34
}