; Function Attrs: nounwind uwtable
define hidden range(i32 -1, 1) i32 @Curl_wait_ms(i64 noundef %0) local_unnamed_addr #0 {
  %2 = alloca %struct.timeval, align 8
  %.not = icmp eq i64 %0, 0
  br i1 %.not, label %15, label %3

3:                                                ; preds = %1
  %4 = icmp slt i64 %0, 0
  br i1 %4, label %5, label %7

5:                                                ; preds = %3
  %6 = tail call ptr @__errno_location() #9
  store i32 22, ptr %6, align 4, !tbaa !3
  br label %15

7:                                                ; preds = %3
  call void @llvm.lifetime.start.p0(i64 16, ptr nonnull %2) #10
  %8 = call ptr @curlx_mstotv(ptr noundef nonnull %2, i64 noundef %0) #10
  %9 = call i32 @select(i32 noundef 0, ptr noundef null, ptr noundef null, ptr noundef null, ptr noundef %8) #10
  call void @llvm.lifetime.end.p0(i64 16, ptr nonnull %2) #10
  switch i32 %9, label %14 [
    i32 0, label %15
    i32 -1, label %10
  ]

10:                                               ; preds = %7
  %11 = tail call ptr @__errno_location() #9
  %12 = load i32, ptr %11, align 4, !tbaa !3
  %13 = icmp eq i32 %12, 4
  br i1 %13, label %15, label %14

14:                                               ; preds = %7, %10
  br label %15

15:                                               ; preds = %14, %7, %10, %1, %5
  %.07 = phi i32 [ -1, %5 ], [ 0, %1 ], [ -1, %14 ], [ %9, %7 ], [ 0, %10 ]
  ret i32 %.07
}